Certificate:
    Data:
        Version: 3 (0x2)
        Serial Number: 4096 (0x1000)
        Signature Algorithm: sha256WithRSAEncryption
        Issuer: C=CN, ST=ZheJiang, L=HangZhou, O=Vertex.io, CN=Vertex.io Test CA
        Validity
            Not Before: Nov 15 08:40:48 2021 GMT
            Not After : Nov 15 08:40:48 2022 GMT
        Subject: C=CN, ST=ZheJiang, L=HangZhou, O=Vertex.io, CN=Vertex.io Test Intermediate CA 2
        Subject Public Key Info:
            Public Key Algorithm: rsaEncryption
                RSA Public-Key: (4096 bit)
                Modulus:
                    00:d1:db:c8:36:0c:a9:8f:8b:55:22:a6:6d:1a:57:
                    2d:cc:5a:72:c7:13:81:25:64:72:07:52:fc:10:15:
                    90:d5:ff:29:90:56:84:ff:b8:5f:f5:b4:4a:d7:57:
                    74:26:b2:c0:fd:60:c6:1c:65:c4:49:ab:73:e9:8f:
                    6c:69:17:94:98:7f:e3:3d:7d:97:77:f7:44:2e:50:
                    c8:43:c8:cb:ca:3d:8f:c3:c3:e1:98:7f:d8:37:23:
                    55:2b:f9:eb:18:ec:17:c3:aa:b4:eb:40:8c:2c:cc:
                    d3:ca:ee:6d:0a:b0:aa:aa:7d:87:1a:48:d6:ae:9c:
                    ba:7f:b4:3a:f2:6f:2c:5c:6a:e8:d3:f6:cd:e1:8a:
                    e4:1b:2b:6e:2e:6c:2a:b2:eb:2c:80:bf:db:a9:f7:
                    96:01:55:74:5d:d4:d9:e2:39:46:fe:5f:03:a7:e9:
                    50:e3:93:66:40:16:83:c1:c6:b8:04:ab:c3:50:ec:
                    12:ec:f3:19:60:ca:b7:54:f5:0b:80:c9:3d:2b:1e:
                    32:84:41:6e:20:16:8a:68:82:a2:dd:bb:5f:9f:4f:
                    f9:94:fc:a5:96:f7:f5:1b:bd:23:7e:82:f1:8e:1c:
                    53:fb:6c:84:c0:8e:5f:9f:d8:39:80:9e:f2:b1:8f:
                    b8:bb:cb:ce:98:30:53:e7:42:9e:8f:b6:e1:53:2c:
                    0d:be:33:af:90:47:d6:62:dc:0c:8e:05:89:a3:13:
                    8a:17:f9:d4:b7:9e:75:af:bf:d9:29:a4:86:90:e3:
                    04:0d:16:07:71:3e:fa:33:ae:08:02:5c:b2:e1:9d:
                    6c:ea:60:b0:41:2d:34:ef:b5:72:b8:69:e6:3b:cd:
                    d3:66:c7:0e:9d:8e:75:fc:cf:52:18:ea:53:55:b7:
                    da:38:8e:11:a7:a5:8e:9f:f5:77:03:b3:c2:5c:04:
                    70:59:e9:39:ed:31:5c:82:40:70:a6:36:81:30:23:
                    41:89:0f:55:45:fa:4b:49:75:bc:4a:f4:18:16:41:
                    3d:54:29:29:b0:ca:fa:cd:b3:ca:89:c3:6e:75:93:
                    24:f2:32:0f:8c:11:20:ac:cc:c4:b9:fa:ac:74:b8:
                    9a:c5:bc:af:2a:0c:67:34:c7:36:eb:45:d7:f4:ab:
                    bb:9f:aa:41:e6:e0:6a:50:6c:90:03:19:70:d8:dc:
                    d1:5b:9a:0f:ba:5e:52:81:53:27:c7:f5:11:a9:bb:
                    c0:51:ef:26:d1:dd:06:dd:fb:ef:11:7a:fa:bc:78:
                    2e:02:89:14:b5:ee:7b:ff:11:53:6c:84:57:23:b2:
                    3b:1a:e5:d2:16:89:39:04:62:24:9d:79:62:66:82:
                    e7:d8:4b:b5:36:bf:95:08:25:a6:e2:54:c6:e9:7f:
                    5f:cd:a5
                Exponent: 65537 (0x10001)
        X509v3 extensions:
            X509v3 Subject Key Identifier: 
                1F:97:AB:55:1D:8E:84:21:F8:4F:49:20:DB:F8:A9:6A:6A:7E:1D:C1
            X509v3 Authority Key Identifier: 
                keyid:AC:76:34:E0:B5:F1:F3:D6:B1:2B:FB:5D:2B:C9:23:6C:43:31:FA:86
                DirName:/C=CN/ST=ZheJiang/L=HangZhou/O=Vertex.io/CN=Vertex.io Test CA
                serial:38:6C:FA:3F:02:80:F2:9D:CC:7F:06:0F:CE:E5:E5:F3:02:E2:1C:A9

            X509v3 Basic Constraints: critical
                CA:TRUE
            X509v3 Key Usage: 
                Digital Signature, Key Encipherment, Certificate Sign, CRL Sign
            X509v3 Extended Key Usage: 
                TLS Web Server Authentication
    Signature Algorithm: sha256WithRSAEncryption
         19:3f:aa:aa:f0:59:3d:5a:a5:d0:33:7b:81:0e:1f:fa:37:87:
         ca:a1:6b:5f:a2:54:f9:86:44:b0:5d:13:fd:15:37:c5:a0:6c:
         c3:a9:90:95:35:1f:79:ca:f1:2f:2d:98:da:75:6e:57:cd:6b:
         45:8d:d5:d7:db:d1:b9:20:29:91:64:e9:0d:dc:74:01:75:a4:
         89:76:cf:f3:a0:32:85:03:c8:e0:a5:45:50:ea:29:fe:3f:56:
         7f:d5:af:93:2c:7a:98:a0:bc:3e:db:de:43:9d:0d:e8:01:72:
         03:3d:04:45:08:e0:d8:01:40:5c:d2:69:7b:b3:d1:ac:8b:27:
         a5:2b:67:aa:da:5e:39:73:00:6b:c2:46:e3:1f:ed:d5:6e:53:
         3b:91:9f:70:64:c5:fe:0c:96:ae:f2:ff:7f:b1:57:3f:c9:2e:
         c4:fc:44:8b:76:51:42:73:83:61:b1:59:eb:e3:03:0d:a2:0c:
         02:70:cd:ce:cc:a6:c2:97:c7:6e:f9:f6:a9:9c:88:c6:22:31:
         4b:6d:46:ce:2c:87:cf:ce:cc:a1:7d:27:d0:ab:b7:1f:13:4a:
         e2:b7:f4:ff:d4:31:02:1d:ba:8e:f6:d1:13:d3:73:57:66:0c:
         fd:ad:0f:9e:64:ad:85:b7:e0:59:ff:68:42:fd:f3:1c:65:d6:
         21:9c:28:5e:be:2d:64:3e:a8:22:52:10:3e:26:d9:b6:ae:7a:
         39:fb:70:dc:ce:03:f5:a6:61:4b:d3:56:75:fc:79:fa:41:b5:
         0e:e1:a1:47:b5:71:42:e2:39:3a:9b:39:4d:dd:03:a7:b9:96:
         06:73:81:ff:0d:2f:f1:6f:ad:d1:67:5a:62:18:80:64:dd:e0:
         fa:29:6a:d4:66:19:70:b0:d4:e5:c5:79:41:0d:53:70:9e:67:
         4d:f3:de:d5:59:6d:2b:25:81:05:a3:f4:f8:93:1d:ea:e1:0b:
         c4:e3:9b:4f:d2:5b:2b:aa:f9:01:e1:b5:ff:d6:47:5f:ba:e5:
         59:10:e1:e9:03:0b:b0:8e:74:26:25:df:30:e1:1f:a9:e7:28:
         f8:00:55:d1:76:d8:a9:83:79:00:04:1b:f3:3a:4b:79:e9:d5:
         48:eb:e8:e9:2c:fa:73:a5:9a:65:51:1d:0a:4d:0c:20:35:72:
         d9:77:24:b4:98:18:35:da:a9:6e:b8:1b:a4:d7:c8:89:07:98:
         d7:33:50:25:fe:74:49:ae:c6:d8:77:ed:ac:69:bb:d8:28:e1:
         23:0c:cb:7a:e9:92:6b:b0:27:32:cd:3c:3f:66:8d:4f:4f:3b:
         b3:33:5d:2f:0b:7a:12:1d:71:5e:06:87:9c:d4:21:07:5a:37:
         09:7c:19:b6:37:3f:3c:86
-----BEGIN CERTIFICATE-----
MIIGSjCCBDKgAwIBAgICEAAwDQYJKoZIhvcNAQELBQAwYzELMAkGA1UEBhMCQ04x
ETAPBgNVBAgMCFpoZUppYW5nMREwDwYDVQQHDAhIYW5nWmhvdTESMBAGA1UECgwJ
VmVydGV4LmlvMRowGAYDVQQDDBFWZXJ0ZXguaW8gVGVzdCBDQTAeFw0yMTExMTUw
ODQwNDhaFw0yMjExMTUwODQwNDhaMHIxCzAJBgNVBAYTAkNOMREwDwYDVQQIDAha
aGVKaWFuZzERMA8GA1UEBwwISGFuZ1pob3UxEjAQBgNVBAoMCVZlcnRleC5pbzEp
MCcGA1UEAwwgVmVydGV4LmlvIFRlc3QgSW50ZXJtZWRpYXRlIENBIDIwggIiMA0G
CSqGSIb3DQEBAQUAA4ICDwAwggIKAoICAQDR28g2DKmPi1Uipm0aVy3MWnLHE4El
ZHIHUvwQFZDV/ymQVoT/uF/1tErXV3QmssD9YMYcZcRJq3Ppj2xpF5SYf+M9fZd3
90QuUMhDyMvKPY/Dw+GYf9g3I1Ur+esY7BfDqrTrQIwszNPK7m0KsKqqfYcaSNau
nLp/tDrybyxcaujT9s3hiuQbK24ubCqy6yyAv9up95YBVXRd1NniOUb+XwOn6VDj
k2ZAFoPBxrgEq8NQ7BLs8xlgyrdU9QuAyT0rHjKEQW4gFopogqLdu1+fT/mU/KWW
9/UbvSN+gvGOHFP7bITAjl+f2DmAnvKxj7i7y86YMFPnQp6PtuFTLA2+M6+QR9Zi
3AyOBYmjE4oX+dS3nnWvv9kppIaQ4wQNFgdxPvozrggCXLLhnWzqYLBBLTTvtXK4
aeY7zdNmxw6djnX8z1IY6lNVt9o4jhGnpY6f9XcDs8JcBHBZ6TntMVyCQHCmNoEw
I0GJD1VF+ktJdbxK9BgWQT1UKSmwyvrNs8qJw251kyTyMg+MESCszMS5+qx0uJrF
vK8qDGc0xzbrRdf0q7ufqkHm4GpQbJADGXDY3NFbmg+6XlKBUyfH9RGpu8BR7ybR
3Qbd++8Revq8eC4CiRS17nv/EVNshFcjsjsa5dIWiTkEYiSdeWJmgufYS7U2v5UI
JabiVMbpf1/NpQIDAQABo4H4MIH1MB0GA1UdDgQWBBQfl6tVHY6EIfhPSSDb+Klq
an4dwTCBoAYDVR0jBIGYMIGVgBSsdjTgtfHz1rEr+10rySNsQzH6hqFnpGUwYzEL
MAkGA1UEBhMCQ04xETAPBgNVBAgMCFpoZUppYW5nMREwDwYDVQQHDAhIYW5nWmhv
dTESMBAGA1UECgwJVmVydGV4LmlvMRowGAYDVQQDDBFWZXJ0ZXguaW8gVGVzdCBD
QYIUOGz6PwKA8p3MfwYPzuXl8wLiHKkwDwYDVR0TAQH/BAUwAwEB/zALBgNVHQ8E
BAMCAaYwEwYDVR0lBAwwCgYIKwYBBQUHAwEwDQYJKoZIhvcNAQELBQADggIBABk/
qqrwWT1apdAze4EOH/o3h8qha1+iVPmGRLBdE/0VN8WgbMOpkJU1H3nK8S8tmNp1
blfNa0WN1dfb0bkgKZFk6Q3cdAF1pIl2z/OgMoUDyOClRVDqKf4/Vn/Vr5Msepig
vD7b3kOdDegBcgM9BEUI4NgBQFzSaXuz0ayLJ6UrZ6raXjlzAGvCRuMf7dVuUzuR
n3Bkxf4Mlq7y/3+xVz/JLsT8RIt2UUJzg2GxWevjAw2iDAJwzc7MpsKXx2759qmc
iMYiMUttRs4sh8/OzKF9J9Crtx8TSuK39P/UMQIduo720RPTc1dmDP2tD55krYW3
4Fn/aEL98xxl1iGcKF6+LWQ+qCJSED4m2bauejn7cNzOA/WmYUvTVnX8efpBtQ7h
oUe1cULiOTqbOU3dA6e5lgZzgf8NL/FvrdFnWmIYgGTd4PopatRmGXCw1OXFeUEN
U3CeZ03z3tVZbSslgQWj9PiTHerhC8Tjm0/SWyuq+QHhtf/WR1+65VkQ4ekDC7CO
dCYl3zDhH6nnKPgAVdF22KmDeQAEG/M6S3np1Ujr6Oks+nOlmmVRHQpNDCA1ctl3
JLSYGDXaqW64G6TXyIkHmNczUCX+dEmuxth37axpu9go4SMMy3rpkmuwJzLNPD9m
jU9PO7MzXS8LehIdcV4Gh5zUIQdaNwl8GbY3PzyG
-----END CERTIFICATE-----
